Certificate:
    Data:
        Version: 3 (0x2)
        Serial Number: 3 (0x3)
        Signature Algorithm: sha256WithRSAEncryption
        Issuer: CN=picotls test ca
        Validity
            Not Before: Mar 22 00:14:34 2021 GMT
            Not After : Mar 20 00:14:34 2031 GMT
        Subject: CN=secp384r1.test.example.com
        Subject Public Key Info:
            Public Key Algorithm: id-ecPublicKey
                Public-Key: (384 bit)
                pub:
                    04:01:0f:f2:01:e8:b2:24:58:9b:4a:80:21:44:2c:
                    56:19:86:d8:41:f3:f1:7e:00:b2:01:94:ff:38:c5:
                    d6:29:83:36:3e:6d:dc:38:88:93:5f:c2:11:9f:de:
                    04:65:bd:41:cf:8a:3c:f6:6f:0b:5b:07:51:6c:f1:
                    59:20:9b:16:79:35:d2:0d:f6:7c:3f:86:8f:c2:1d:
                    54:2d:2b:f5:25:4c:89:a8:62:b1:9f:80:1f:f1:c2:
                    dc:9e:4b:a6:b8:c5:5a
                ASN1 OID: secp384r1
                NIST CURVE: P-384
        X509v3 extensions:
            X509v3 Basic Constraints: 
                CA:FALSE
            Netscape Comment: 
                OpenSSL Generated Certificate
            X509v3 Subject Key Identifier: 
                C3:D2:A4:8C:90:23:54:D8:9F:ED:59:94:83:09:0D:D5:22:83:A0:F1
            X509v3 Authority Key Identifier: 
                keyid:BF:79:CA:97:B2:60:78:20:96:AA:46:57:9C:DF:A7:B2:23:F5:25:63

    Signature Algorithm: sha256WithRSAEncryption
         37:c8:be:48:a7:68:57:4e:aa:92:b9:19:0d:f8:84:4b:9d:94:
         32:26:ba:d4:1d:4e:1f:88:69:a0:68:d7:4f:48:05:c7:80:2a:
         04:d9:67:76:4c:c0:49:93:69:1b:20:58:ce:44:8b:a6:54:8a:
         54:a1:00:93:52:d1:a3:ad:a0:cf:e6:18:30:64:20:a9:4c:8c:
         ed:c2:7a:7b:7a:c3:8c:c0:65:4f:16:7a:b1:9b:3e:03:10:6c:
         9f:6c:33:fc:2d:d5:a0:75:93:78:c6:db:21:5d:23:20:15:46:
         3d:bb:77:16:41:43:71:58:de:d6:0c:be:b5:6f:27:87:c3:91:
         99:3c:a7:fe:48:3f:7d:7d:03:ac:b5:8c:ce:f1:70:1e:4f:7c:
         42:28:d8:95:98:ed:6b:17:3b:51:ac:ff:ee:cb:79:c1:6c:2e:
         39:4c:ab:f5:c9:a2:42:6b:a8:1c:38:17:4d:49:78:ba:10:7f:
         25:5d:6c:f4:01:20:2e:17:bf:e3:42:0f:7b:43:01:b7:d4:85:
         2d:0e:f2:3b:c8:82:76:43:ca:8b:4b:af:1c:05:18:ef:da:7c:
         3c:ad:30:90:fd:4b:f7:00:11:bd:99:7f:9f:6d:67:0e:80:c4:
         08:e9:cf:2f:38:e3:d9:ff:ad:7e:99:5a:39:47:7b:c1:4a:b7:
         af:54:e0:c5
-----BEGIN CERTIFICATE-----
MIIChzCCAW+gAwIBAgIBAzANBgkqhkiG9w0BAQsFADAaMRgwFgYDVQQDEw9waWNv
dGxzIHRlc3QgY2EwHhcNMjEwMzIyMDAxNDM0WhcNMzEwMzIwMDAxNDM0WjAlMSMw
IQYDVQQDDBpzZWNwMzg0cjEudGVzdC5leGFtcGxlLmNvbTB2MBAGByqGSM49AgEG
BSuBBAAiA2IABAEP8gHosiRYm0qAIUQsVhmG2EHz8X4AsgGU/zjF1imDNj5t3DiI
k1/CEZ/eBGW9Qc+KPPZvC1sHUWzxWSCbFnk10g32fD+Gj8IdVC0r9SVMiahisZ+A
H/HC3J5LprjFWqN7MHkwCQYDVR0TBAIwADAsBglghkgBhvhCAQ0EHxYdT3BlblNT
TCBHZW5lcmF0ZWQgQ2VydGlmaWNhdGUwHQYDVR0OBBYEFMPSpIyQI1TYn+1ZlIMJ
DdUig6DxMB8GA1UdIwQYMBaAFL95ypeyYHgglqpGV5zfp7Ij9SVjMA0GCSqGSIb3
DQEBCwUAA4IBAQA3yL5Ip2hXTqqSuRkN+IRLnZQyJrrUHU4fiGmgaNdPSAXHgCoE
2Wd2TMBJk2kbIFjORIumVIpUoQCTUtGjraDP5hgwZCCpTIztwnp7esOMwGVPFnqx
mz4DEGyfbDP8LdWgdZN4xtshXSMgFUY9u3cWQUNxWN7WDL61byeHw5GZPKf+SD99
fQOstYzO8XAeT3xCKNiVmO1rFztRrP/uy3nBbC45TKv1yaJCa6gcOBdNSXi6EH8l
XWz0ASAuF7/jQg97QwG31IUtDvI7yIJ2Q8qLS68cBRjv2nw8rTCQ/Uv3ABG9mX+f
bWcOgMQI6c8vOOPZ/61+mVo5R3vBSrevVODF
-----END CERTIFICATE-----
